target datalayout = "e-m:e-p270:32:32-p271:32:32-p272:64:64-i64:64-i128:128-f80:128-n8:16:32:64-S128"
target triple = "x86_64-pc-linux-gnu"

%struct.nameData = type { [64 x i8] }
%struct.RelationData = type { %struct.RelFileLocator, ptr, i32, i32, i8, i8, i8, i8, i8, i32, i32, i32, i32, ptr, ptr, i32, %struct.LockInfoData, ptr, ptr, ptr, ptr, ptr, i8, ptr, ptr, ptr, ptr, ptr, ptr, i32, ptr, i8, ptr, ptr, i32, i8, i32, ptr, i8, ptr, ptr, ptr, ptr, ptr, ptr, ptr, i32, ptr, ptr, ptr, ptr, ptr, ptr, ptr, ptr, ptr, ptr, ptr, ptr, ptr, ptr, ptr, ptr, ptr, ptr, ptr, i32, i8, ptr }
%struct.RelFileLocator = type { i32, i32, i32 }
%struct.LockInfoData = type { %struct.LockRelId }
%struct.LockRelId = type { i32, i32 }
%struct.FormData_pg_class = type { i32, %struct.nameData, i32, i32, i32, i32, i32, i32, i32, i32, float, i32, i32, i8, i8, i8, i8, i16, i16, i8, i8, i8, i8, i8, i8, i8, i8, i32, i32, i32 }
%struct.TableAmRoutine = type { i32, ptr, ptr, ptr, ptr, ptr, ptr, ptr, ptr, ptr, ptr, ptr, ptr, ptr, ptr, ptr, ptr, ptr, ptr, ptr, ptr, ptr, ptr, ptr, ptr, ptr, ptr, ptr, ptr, ptr, ptr, ptr, ptr, ptr, ptr, ptr, ptr, ptr, ptr, ptr, ptr, ptr, ptr, ptr, ptr, ptr }

@.str.1 = private unnamed_addr constant [7 x i8] c"heap.c\00", align 1
@Mode = external global i32, align 4
@.str.2 = private unnamed_addr constant [36 x i8] c"permission denied to create \22%s.%s\22\00", align 1
@.str.3 = private unnamed_addr constant [55 x i8] c"System catalog modifications are currently disallowed.\00", align 1
@__func__.heap_create = private unnamed_addr constant [12 x i8] c"heap_create\00", align 1
@MyDatabaseTableSpace = external global i32, align 4

; Function Attrs: inlinehint nounwind uwtable
define internal void @table_relation_set_new_filelocator(ptr noundef %0, ptr noundef %1, i8 noundef signext %2, ptr noundef %3, ptr noundef %4) #5 {
  %6 = alloca ptr, align 8
  %7 = alloca ptr, align 8
  %8 = alloca i8, align 1
  %9 = alloca ptr, align 8
  %10 = alloca ptr, align 8
  store ptr %0, ptr %6, align 8
  store ptr %1, ptr %7, align 8
  store i8 %2, ptr %8, align 1
  store ptr %3, ptr %9, align 8
  store ptr %4, ptr %10, align 8
  %11 = load ptr, ptr %6, align 8
  %12 = getelementptr inbounds nuw %struct.RelationData, ptr %11, i32 0, i32 47
  %13 = load ptr, ptr %12, align 8
  %14 = getelementptr inbounds nuw %struct.TableAmRoutine, ptr %13, i32 0, i32 28
  %15 = load ptr, ptr %14, align 8
  %16 = load ptr, ptr %6, align 8
  %17 = load ptr, ptr %7, align 8
  %18 = load i8, ptr %8, align 1
  %19 = load ptr, ptr %9, align 8
  %20 = load ptr, ptr %10, align 8
  call void %15(ptr noundef %16, ptr noundef %17, i8 noundef signext %18, ptr noundef %19, ptr noundef %20)
  ret void
}

; Function Attrs: nounwind uwtable
define dso_local ptr @heap_create(ptr noundef %0, i32 noundef %1, i32 noundef %2, i32 noundef %3, i32 noundef %4, i32 noundef %5, ptr noundef %6, i8 noundef signext %7, i8 noundef signext %8, i1 noundef zeroext %9, i1 noundef zeroext %10, i1 noundef zeroext %11, ptr noundef %12, ptr noundef %13, i1 noundef zeroext %14) #0 {
  %16 = alloca ptr, align 8
  %17 = alloca i32, align 4
  %18 = alloca i32, align 4
  %19 = alloca i32, align 4
  %20 = alloca i32, align 4
  %21 = alloca i32, align 4
  %22 = alloca ptr, align 8
  %23 = alloca i8, align 1
  %24 = alloca i8, align 1
  %25 = alloca i8, align 1
  %26 = alloca i8, align 1
  %27 = alloca i8, align 1
  %28 = alloca ptr, align 8
  %29 = alloca ptr, align 8
  %30 = alloca i8, align 1
  %31 = alloca ptr, align 8
  %32 = alloca { i64, i32 }, align 8
  store ptr %0, ptr %16, align 8
  store i32 %1, ptr %17, align 4
  store i32 %2, ptr %18, align 4
  store i32 %3, ptr %19, align 4
  store i32 %4, ptr %20, align 4
  store i32 %5, ptr %21, align 4
  store ptr %6, ptr %22, align 8
  store i8 %7, ptr %23, align 1
  store i8 %8, ptr %24, align 1
  %33 = zext i1 %9 to i8
  store i8 %33, ptr %25, align 1
  %34 = zext i1 %10 to i8
  store i8 %34, ptr %26, align 1
  %35 = zext i1 %11 to i8
  store i8 %35, ptr %27, align 1
  store ptr %12, ptr %28, align 8
  store ptr %13, ptr %29, align 8
  %36 = zext i1 %14 to i8
  store i8 %36, ptr %30, align 1
  call void @llvm.lifetime.start.p0(i64 8, ptr %31) #10
  %37 = load i8, ptr %27, align 1, !range !6, !noundef !7
  %38 = trunc i8 %37 to i1
  br i1 %38, label %68, label %39

39:                                               ; preds = %15
  %40 = load i32, ptr %17, align 4
  %41 = call zeroext i1 @IsCatalogNamespace(i32 noundef %40)
  br i1 %41, label %42, label %46

42:                                               ; preds = %39
  %43 = load i8, ptr %23, align 1
  %44 = sext i8 %43 to i32
  %45 = icmp ne i32 %44, 105
  br i1 %45, label %49, label %46

46:                                               ; preds = %42, %39
  %47 = load i32, ptr %17, align 4
  %48 = call zeroext i1 @IsToastNamespace(i32 noundef %47)
  br i1 %48, label %49, label %68

49:                                               ; preds = %46, %42
  %50 = load i32, ptr @Mode, align 4
  %51 = icmp eq i32 %50, 2
  br i1 %51, label %52, label %68

52:                                               ; preds = %49
  br label %53

53:                                               ; preds = %52
  br i1 true, label %54, label %56

54:                                               ; preds = %53
  %55 = call zeroext i1 @errstart_cold(i32 noundef 21, ptr noundef null) #9
  br i1 %55, label %58, label %65

56:                                               ; preds = %53
  %57 = call zeroext i1 @errstart(i32 noundef 21, ptr noundef null)
  br i1 %57, label %58, label %65

58:                                               ; preds = %56, %54
  %59 = call i32 @errcode(i32 noundef 16797828)
  %60 = load i32, ptr %17, align 4
  %61 = call ptr @get_namespace_name(i32 noundef %60)
  %62 = load ptr, ptr %16, align 8
  %63 = call i32 (ptr, ...) @errmsg(ptr noundef @.str.2, ptr noundef %61, ptr noundef %62)
  %64 = call i32 (ptr, ...) @errdetail(ptr noundef @.str.3)
  call void @errfinish(ptr noundef @.str.1, i32 noundef 322, ptr noundef @__func__.heap_create)
  br label %65

65:                                               ; preds = %58, %56, %54
  unreachable

66:                                               ; No predecessors!
  br label %67

67:                                               ; preds = %66
  br label %68

68:                                               ; preds = %67, %49, %46, %15
  %69 = load ptr, ptr %28, align 8
  store i32 0, ptr %69, align 4
  %70 = load ptr, ptr %29, align 8
  store i32 0, ptr %70, align 4
  %71 = load i8, ptr %23, align 1
  %72 = sext i8 %71 to i32
  %73 = icmp eq i32 %72, 114
  br i1 %73, label %98, label %74

74:                                               ; preds = %68
  %75 = load i8, ptr %23, align 1
  %76 = sext i8 %75 to i32
  %77 = icmp eq i32 %76, 105
  br i1 %77, label %98, label %78

78:                                               ; preds = %74
  %79 = load i8, ptr %23, align 1
  %80 = sext i8 %79 to i32
  %81 = icmp eq i32 %80, 83
  br i1 %81, label %98, label %82

82:                                               ; preds = %78
  %83 = load i8, ptr %23, align 1
  %84 = sext i8 %83 to i32
  %85 = icmp eq i32 %84, 116
  br i1 %85, label %98, label %86

86:                                               ; preds = %82
  %87 = load i8, ptr %23, align 1
  %88 = sext i8 %87 to i32
  %89 = icmp eq i32 %88, 109
  br i1 %89, label %98, label %90

90:                                               ; preds = %86
  %91 = load i8, ptr %23, align 1
  %92 = sext i8 %91 to i32
  %93 = icmp eq i32 %92, 112
  br i1 %93, label %98, label %94

94:                                               ; preds = %90
  %95 = load i8, ptr %23, align 1
  %96 = sext i8 %95 to i32
  %97 = icmp eq i32 %96, 73
  br i1 %97, label %98, label %102

98:                                               ; preds = %94, %90, %86, %82, %78, %74, %68
  %99 = load i8, ptr %23, align 1
  %100 = sext i8 %99 to i32
  %101 = icmp ne i32 %100, 83
  br i1 %101, label %103, label %102

102:                                              ; preds = %98, %94
  store i32 0, ptr %18, align 4
  br label %103

103:                                              ; preds = %102, %98
  %104 = load i8, ptr %23, align 1
  %105 = sext i8 %104 to i32
  %106 = icmp eq i32 %105, 114
  br i1 %106, label %124, label %107

107:                                              ; preds = %103
  %108 = load i8, ptr %23, align 1
  %109 = sext i8 %108 to i32
  %110 = icmp eq i32 %109, 105
  br i1 %110, label %124, label %111

111:                                              ; preds = %107
  %112 = load i8, ptr %23, align 1
  %113 = sext i8 %112 to i32
  %114 = icmp eq i32 %113, 83
  br i1 %114, label %124, label %115

115:                                              ; preds = %111
  %116 = load i8, ptr %23, align 1
  %117 = sext i8 %116 to i32
  %118 = icmp eq i32 %117, 116
  br i1 %118, label %124, label %119

119:                                              ; preds = %115
  %120 = load i8, ptr %23, align 1
  %121 = sext i8 %120 to i32
  %122 = icmp eq i32 %121, 109
  br i1 %122, label %124, label %123

123:                                              ; preds = %119
  store i8 0, ptr %30, align 1
  br label %130

124:                                              ; preds = %119, %115, %111, %107, %103
  %125 = load i32, ptr %20, align 4
  %126 = icmp ne i32 %125, 0
  br i1 %126, label %129, label %127

127:                                              ; preds = %124
  %128 = load i32, ptr %19, align 4
  store i32 %128, ptr %20, align 4
  br label %129

129:                                              ; preds = %127, %124
  br label %130

130:                                              ; preds = %129, %123
  %131 = load i32, ptr %18, align 4
  %132 = load i32, ptr @MyDatabaseTableSpace, align 4
  %133 = icmp eq i32 %131, %132
  br i1 %133, label %134, label %135

134:                                              ; preds = %130
  store i32 0, ptr %18, align 4
  br label %135

135:                                              ; preds = %134, %130
  %136 = load ptr, ptr %16, align 8
  %137 = load i32, ptr %17, align 4
  %138 = load ptr, ptr %22, align 8
  %139 = load i32, ptr %19, align 4
  %140 = load i32, ptr %21, align 4
  %141 = load i32, ptr %20, align 4
  %142 = load i32, ptr %18, align 4
  %143 = load i8, ptr %25, align 1, !range !6, !noundef !7
  %144 = trunc i8 %143 to i1
  %145 = load i8, ptr %26, align 1, !range !6, !noundef !7
  %146 = trunc i8 %145 to i1
  %147 = load i8, ptr %24, align 1
  %148 = load i8, ptr %23, align 1
  %149 = call ptr @RelationBuildLocalRelation(ptr noundef %136, i32 noundef %137, ptr noundef %138, i32 noundef %139, i32 noundef %140, i32 noundef %141, i32 noundef %142, i1 noundef zeroext %144, i1 noundef zeroext %146, i8 noundef signext %147, i8 noundef signext %148)
  store ptr %149, ptr %31, align 8
  %150 = load i8, ptr %30, align 1, !range !6, !noundef !7
  %151 = trunc i8 %150 to i1
  br i1 %151, label %152, label %235

152:                                              ; preds = %135
  %153 = load ptr, ptr %31, align 8
  %154 = getelementptr inbounds nuw %struct.RelationData, ptr %153, i32 0, i32 13
  %155 = load ptr, ptr %154, align 8
  %156 = getelementptr inbounds nuw %struct.FormData_pg_class, ptr %155, i32 0, i32 16
  %157 = load i8, ptr %156, align 1
  %158 = sext i8 %157 to i32
  %159 = icmp eq i32 %158, 114
  br i1 %159, label %176, label %160

160:                                              ; preds = %152
  %161 = load ptr, ptr %31, align 8
  %162 = getelementptr inbounds nuw %struct.RelationData, ptr %161, i32 0, i32 13
  %163 = load ptr, ptr %162, align 8
  %164 = getelementptr inbounds nuw %struct.FormData_pg_class, ptr %163, i32 0, i32 16
  %165 = load i8, ptr %164, align 1
  %166 = sext i8 %165 to i32
  %167 = icmp eq i32 %166, 116
  br i1 %167, label %176, label %168

168:                                              ; preds = %160
  %169 = load ptr, ptr %31, align 8
  %170 = getelementptr inbounds nuw %struct.RelationData, ptr %169, i32 0, i32 13
  %171 = load ptr, ptr %170, align 8
  %172 = getelementptr inbounds nuw %struct.FormData_pg_class, ptr %171, i32 0, i32 16
  %173 = load i8, ptr %172, align 1
  %174 = sext i8 %173 to i32
  %175 = icmp eq i32 %174, 109
  br i1 %175, label %176, label %183

176:                                              ; preds = %168, %160, %152
  %177 = load ptr, ptr %31, align 8
  %178 = load ptr, ptr %31, align 8
  %179 = getelementptr inbounds nuw %struct.RelationData, ptr %178, i32 0, i32 0
  %180 = load i8, ptr %24, align 1
  %181 = load ptr, ptr %28, align 8
  %182 = load ptr, ptr %29, align 8
  call void @table_relation_set_new_filelocator(ptr noundef %177, ptr noundef %179, i8 noundef signext %180, ptr noundef %181, ptr noundef %182)
  br label %234

183:                                              ; preds = %168
  %184 = load ptr, ptr %31, align 8
  %185 = getelementptr inbounds nuw %struct.RelationData, ptr %184, i32 0, i32 13
  %186 = load ptr, ptr %185, align 8
  %187 = getelementptr inbounds nuw %struct.FormData_pg_class, ptr %186, i32 0, i32 16
  %188 = load i8, ptr %187, align 1
  %189 = sext i8 %188 to i32
  %190 = icmp eq i32 %189, 114
  br i1 %190, label %223, label %191

191:                                              ; preds = %183
  %192 = load ptr, ptr %31, align 8
  %193 = getelementptr inbounds nuw %struct.RelationData, ptr %192, i32 0, i32 13
  %194 = load ptr, ptr %193, align 8
  %195 = getelementptr inbounds nuw %struct.FormData_pg_class, ptr %194, i32 0, i32 16
  %196 = load i8, ptr %195, align 1
  %197 = sext i8 %196 to i32
  %198 = icmp eq i32 %197, 105
  br i1 %198, label %223, label %199

199:                                              ; preds = %191
  %200 = load ptr, ptr %31, align 8
  %201 = getelementptr inbounds nuw %struct.RelationData, ptr %200, i32 0, i32 13
  %202 = load ptr, ptr %201, align 8
  %203 = getelementptr inbounds nuw %struct.FormData_pg_class, ptr %202, i32 0, i32 16
  %204 = load i8, ptr %203, align 1
  %205 = sext i8 %204 to i32
  %206 = icmp eq i32 %205, 83
  br i1 %206, label %223, label %207

207:                                              ; preds = %199
  %208 = load ptr, ptr %31, align 8
  %209 = getelementptr inbounds nuw %struct.RelationData, ptr %208, i32 0, i32 13
  %210 = load ptr, ptr %209, align 8
  %211 = getelementptr inbounds nuw %struct.FormData_pg_class, ptr %210, i32 0, i32 16
  %212 = load i8, ptr %211, align 1
  %213 = sext i8 %212 to i32
  %214 = icmp eq i32 %213, 116
  br i1 %214, label %223, label %215

215:                                              ; preds = %207
  %216 = load ptr, ptr %31, align 8
  %217 = getelementptr inbounds nuw %struct.RelationData, ptr %216, i32 0, i32 13
  %218 = load ptr, ptr %217, align 8
  %219 = getelementptr inbounds nuw %struct.FormData_pg_class, ptr %218, i32 0, i32 16
  %220 = load i8, ptr %219, align 1
  %221 = sext i8 %220 to i32
  %222 = icmp eq i32 %221, 109
  br i1 %222, label %223, label %232

223:                                              ; preds = %215, %207, %199, %191, %183
  %224 = load ptr, ptr %31, align 8
  %225 = getelementptr inbounds nuw %struct.RelationData, ptr %224, i32 0, i32 0
  %226 = load i8, ptr %24, align 1
  call void @llvm.memcpy.p0.p0.i64(ptr align 8 %32, ptr align 8 %225, i64 12, i1 false)
  %227 = getelementptr inbounds nuw { i64, i32 }, ptr %32, i32 0, i32 0
  %228 = load i64, ptr %227, align 8
  %229 = getelementptr inbounds nuw { i64, i32 }, ptr %32, i32 0, i32 1
  %230 = load i32, ptr %229, align 8
  %231 = call ptr @RelationCreateStorage(i64 %228, i32 %230, i8 noundef signext %226, i1 noundef zeroext true)
  br label %233

232:                                              ; preds = %215
  br label %233

233:                                              ; preds = %232, %223
  br label %234

234:                                              ; preds = %233, %176
  br label %235

235:                                              ; preds = %234, %135
  %236 = load i8, ptr %30, align 1, !range !6, !noundef !7
  %237 = trunc i8 %236 to i1
  br i1 %237, label %244, label %238

238:                                              ; preds = %235
  %239 = load i32, ptr %18, align 4
  %240 = icmp ne i32 %239, 0
  br i1 %240, label %241, label %244

241:                                              ; preds = %238
  %242 = load i32, ptr %19, align 4
  %243 = load i32, ptr %18, align 4
  call void @recordDependencyOnTablespace(i32 noundef 1259, i32 noundef %242, i32 noundef %243)
  br label %244

244:                                              ; preds = %241, %238, %235
  %245 = load ptr, ptr %31, align 8
  call void @pgstat_create_relation(ptr noundef %245)
  %246 = load ptr, ptr %31, align 8
  call void @llvm.lifetime.end.p0(i64 8, ptr %31) #10
  ret ptr %246
}