; Function Attrs: nounwind uwtable
define dso_local ptr @heap_create(ptr noundef %0, i32 noundef %1, i32 noundef %2, i32 noundef %3, i32 noundef %4, i32 noundef %5, ptr noundef %6, i8 noundef signext %7, i8 noundef signext %8, i1 noundef zeroext %9, i1 noundef zeroext %10, i1 noundef zeroext %11, ptr noundef %12, ptr noundef %13, i1 noundef zeroext %14) local_unnamed_addr #0 {
  br i1 %11, label %30, label %16

16:                                               ; preds = %15
  %17 = tail call zeroext i1 @IsCatalogNamespace(i32 noundef %1) #11
  %18 = icmp ne i8 %7, 105
  %or.cond = and i1 %18, %17
  br i1 %or.cond, label %23, label %19

19:                                               ; preds = %16
  %20 = tail call zeroext i1 @IsToastNamespace(i32 noundef %1) #11
  %21 = load i32, ptr @Mode, align 4
  %22 = icmp eq i32 %21, 2
  %or.cond4 = select i1 %20, i1 %22, i1 false
  br i1 %or.cond4, label %24, label %30

23:                                               ; preds = %16
  %.old = load i32, ptr @Mode, align 4
  %.old3 = icmp eq i32 %.old, 2
  br i1 %.old3, label %24, label %30

24:                                               ; preds = %19, %23
  %25 = tail call zeroext i1 @errstart_cold(i32 noundef 21, ptr noundef null) #10
  tail call void @llvm.assume(i1 %25)
  %26 = tail call i32 @errcode(i32 noundef 16797828) #11
  %27 = tail call ptr @get_namespace_name(i32 noundef %1) #11
  %28 = tail call i32 (ptr, ...) @errmsg(ptr noundef nonnull @.str.2, ptr noundef %27, ptr noundef %0) #11
  %29 = tail call i32 (ptr, ...) @errdetail(ptr noundef nonnull @.str.3) #11
  tail call void @errfinish(ptr noundef nonnull @.str.1, i32 noundef 322, ptr noundef nonnull @__func__.heap_create) #11
  unreachable

30:                                               ; preds = %23, %19, %15
  store i32 0, ptr %12, align 4
  store i32 0, ptr %13, align 4
  %31 = icmp eq i8 %7, 114
  %32 = icmp eq i8 %7, 105
  %or.cond8 = or i1 %31, %32
  %33 = icmp eq i8 %7, 83
  %or.cond12 = or i1 %33, %or.cond8
  %34 = icmp eq i8 %7, 116
  %or.cond16 = or i1 %34, %or.cond12
  %35 = icmp eq i8 %7, 109
  %or.cond20 = or i1 %35, %or.cond16
  %36 = icmp eq i8 %7, 112
  %37 = icmp eq i8 %7, 73
  %38 = or i1 %36, %37
  %or.cond28 = or i1 %38, %or.cond20
  %39 = icmp ne i8 %7, 83
  %or.cond32 = and i1 %39, %or.cond28
  %spec.select = select i1 %or.cond32, i32 %2, i32 0
  switch i8 %7, label %41 [
    i8 116, label %40
    i8 114, label %40
    i8 109, label %40
    i8 105, label %40
    i8 83, label %40
  ]

40:                                               ; preds = %30, %30, %30, %30, %30
  %.not111 = icmp eq i32 %4, 0
  %spec.select113 = select i1 %.not111, i32 %3, i32 %4
  br label %41

41:                                               ; preds = %40, %30
  %.0108.shrunk = phi i1 [ false, %30 ], [ %14, %40 ]
  %.0107 = phi i32 [ %4, %30 ], [ %spec.select113, %40 ]
  %42 = load i32, ptr @MyDatabaseTableSpace, align 4
  %43 = icmp eq i32 %spec.select, %42
  %spec.store.select = select i1 %43, i32 0, i32 %spec.select
  %44 = tail call ptr @RelationBuildLocalRelation(ptr noundef %0, i32 noundef %1, ptr noundef %6, i32 noundef %3, i32 noundef %5, i32 noundef %.0107, i32 noundef %spec.store.select, i1 noundef zeroext %9, i1 noundef zeroext %10, i8 noundef signext %8, i8 noundef signext %7) #11
  br i1 %.0108.shrunk, label %45, label %57

45:                                               ; preds = %41
  %46 = getelementptr inbounds nuw i8, ptr %44, i64 56
  %47 = load ptr, ptr %46, align 8
  %48 = getelementptr inbounds nuw i8, ptr %47, i64 115
  %49 = load i8, ptr %48, align 1
  switch i8 %49, label %.thread [
    i8 114, label %50
    i8 116, label %50
    i8 109, label %50
    i8 105, label %55
    i8 83, label %55
  ]

50:                                               ; preds = %45, %45, %45
  %51 = getelementptr inbounds nuw i8, ptr %44, i64 320
  %52 = load ptr, ptr %51, align 8
  %53 = getelementptr inbounds nuw i8, ptr %52, i64 224
  %54 = load ptr, ptr %53, align 8
  tail call void %54(ptr noundef nonnull %44, ptr noundef nonnull %44, i8 noundef signext %8, ptr noundef nonnull %12, ptr noundef nonnull %13) #11
  br label %.thread

55:                                               ; preds = %45, %45
  %.sroa.0.0.copyload = load i64, ptr %44, align 8
  %.sroa.2.0..sroa_idx = getelementptr inbounds nuw i8, ptr %44, i64 8
  %.sroa.2.0.copyload = load i32, ptr %.sroa.2.0..sroa_idx, align 8
  %56 = tail call ptr @RelationCreateStorage(i64 %.sroa.0.0.copyload, i32 %.sroa.2.0.copyload, i8 noundef signext %8, i1 noundef zeroext true) #11
  br label %.thread

57:                                               ; preds = %41
  %58 = icmp eq i32 %spec.store.select, 0
  br i1 %58, label %.thread, label %59

59:                                               ; preds = %57
  tail call void @recordDependencyOnTablespace(i32 noundef 1259, i32 noundef %3, i32 noundef %spec.store.select) #11
  br label %.thread

.thread:                                          ; preds = %55, %50, %45, %59, %57
  tail call void @pgstat_create_relation(ptr noundef %44) #11
  ret ptr %44
}